; Function Attrs: nounwind uwtable
define internal i32 @prte_plm_base_open(i32 noundef %0) #0 {
  store i32 1, ptr getelementptr inbounds nuw (i8, ptr @prte_plm_globals, i64 8), align 8, !tbaa !41
  store i8 1, ptr getelementptr inbounds nuw (i8, ptr @prte_plm_globals, i64 72), align 8, !tbaa !8
  %2 = load i32, ptr @pmix_class_init_epoch, align 4, !tbaa !42
  %3 = load i32, ptr getelementptr inbounds nuw (i8, ptr @pmix_list_t_class, i64 32), align 8, !tbaa !43
  %.not = icmp eq i32 %2, %3
  br i1 %.not, label %5, label %4

4:                                                ; preds = %1
  tail call void @pmix_class_initialize(ptr noundef nonnull @pmix_list_t_class) #10
  br label %5

5:                                                ; preds = %4, %1
  store ptr @pmix_list_t_class, ptr getelementptr inbounds nuw (i8, ptr @prte_plm_globals, i64 128), align 8, !tbaa !45
  store i32 1, ptr getelementptr inbounds nuw (i8, ptr @prte_plm_globals, i64 136), align 8, !tbaa !46
  tail call void @llvm.memset.p0.i64(ptr noundef nonnull align 8 dereferenceable(64) getelementptr inbounds nuw (i8, ptr @prte_plm_globals, i64 144), i8 0, i64 64, i1 false)
  %6 = load ptr, ptr getelementptr inbounds nuw (i8, ptr @pmix_list_t_class, i64 40), align 8, !tbaa !47
  %7 = load ptr, ptr %6, align 8, !tbaa !48
  %.not1.i = icmp eq ptr %7, null
  br i1 %.not1.i, label %pmix_obj_run_constructors.exit, label %.lr.ph.i

.lr.ph.i:                                         ; preds = %5, %.lr.ph.i
  %8 = phi ptr [ %10, %.lr.ph.i ], [ %7, %5 ]
  %.02.i = phi ptr [ %9, %.lr.ph.i ], [ %6, %5 ]
  tail call void %8(ptr noundef nonnull getelementptr inbounds nuw (i8, ptr @prte_plm_globals, i64 88)) #10
  %9 = getelementptr inbounds nuw i8, ptr %.02.i, i64 8
  %10 = load ptr, ptr %9, align 8, !tbaa !48
  %.not.i = icmp eq ptr %10, null
  br i1 %.not.i, label %pmix_obj_run_constructors.exit, label %.lr.ph.i, !llvm.loop !49

pmix_obj_run_constructors.exit:                   ; preds = %.lr.ph.i, %5
  %11 = tail call i32 @pmix_mca_base_framework_components_open(ptr noundef nonnull @prte_plm_base_framework, i32 noundef %0) #10
  ret i32 %11
}